(lp0
(F50.20996456207661
F48.47720436319627
F141.19054273681812
tp1
a(F55.34076318383032
F37.53415169707177
F46.57964499306535
tp2
a(F93.0535819287854
F139.40662052086603
F55.60336773914929
tp3
a(F54.32347555204573
F41.63081950213912
F193.51402231613298
tp4
a(F122.41507285635183
F109.75813500033924
F61.194430773466756
tp5
a(F174.25987240623527
F125.02453206382339
F20.01637645381813
tp6
a(F147.25846757145655
F131.7743872954634
F134.821804268219
tp7
a(F147.2475521577441
F58.29470298112789
F48.892940217488025
tp8
a(F150.14900142170222
F59.04158931236956
F147.45092689479807
tp9
a(F172.30978739782157
F25.466727887326
F195.78637932825643
tp10
a(F193.2637035126152
F68.611881885298
F176.7492337421783
tp11
a(F176.91611698730622
F3.369619562457804
F76.16547196919805
tp12
a(F143.0687814270472
F72.73198772045278
F20.913592722575956
tp13
a(F139.97974296966422
F128.69883591614587
F149.12581244126838
tp14
a(F152.67162842542203
F153.01205272326771
F138.7720945947351
tp15
a(F143.07614287903644
F169.7956799602262
F174.54555455349927
tp16
a(F146.3121468275323
F198.69081780048188
F1.592806565372995
tp17
a(F49.20560678940087
F147.17654306346856
F94.41703066117522
tp18
a(F105.36374829587929
F61.05217710550226
F130.90088965349005
tp19
a(F18.909842102199303
F93.07485075316559
F174.32829202000423
tp20
a(F162.5059784936368
F145.1282114542102
F135.80023383959724
tp21
a(F163.2791298089151
F97.82798711462364
F33.349474223087164
tp22
a(F67.64597281811564
F43.82456282135192
F111.208739820612
tp23
a(F131.02009039590942
F72.40607508966197
F107.15248194829698
tp24
a(F92.31269969637819
F158.2362808180352
F92.37899413570022
tp25
a(F109.87634453981919
F176.2600687024136
F119.56580607872367
tp26
a(F122.41900310208504
F115.29571882927473
F113.73344982776263
tp27
a(F107.45834527405793
F76.41735464709127
F55.98023154564964
tp28
a(F190.0332964702614
F47.62824842743203
F48.980123352771976
tp29
a(F176.18322268836724
F124.78717900844552
F160.74480719503222
tp30
a(F89.76051753840547
F198.8490284285793
F193.23784865977004
tp31
a(F121.69264281145797
F123.00744186798065
F39.13310960531797
tp32
a(F154.83110325749902
F95.28203440153918
F176.4579352860951
tp33
a(F48.78762798102429
F10.222809069522377
F137.52481000453994
tp34
a(F190.5921438481805
F155.8442020920654
F57.243611248974815
tp35
a(F9.553308556438743
F24.290995957834838
F93.04033603074488
tp36
a(F17.280121720965248
F9.207119715569977
F57.027901168128835
tp37
a(F150.54432355438445
F185.705234327802
F64.71133011533836
tp38
a(F42.16094605529492
F23.579883930915635
F183.7239214708578
tp39
a(F127.14357509436469
F126.81589663733577
F167.31716669148656
tp40
a(F196.85912896468534
F98.21083903648686
F171.70484129745387
tp41
a(F174.6776019693471
F92.15285211019508
F96.41943838294071
tp42
a(F44.06600123403683
F192.54835929718462
F113.75456119583176
tp43
a(F142.46807313608704
F199.69625359672511
F118.7809999369698
tp44
a(F92.00047324493093
F96.46290768258743
F160.05364986098343
tp45
a(F168.77147533187912
F172.57124985312157
F197.04681241505122
tp46
a(F111.60412089788836
F185.05938183180734
F115.23779174421185
tp47
a(F171.49583518511844
F173.87125318780014
F68.36135276959384
tp48
a(F15.474981104778651
F46.82898900542207
F160.6410493954256
tp49
a(F144.76206984370896
F138.0879087941274
F34.3692713369496
tp50
a(F40.575736619434565
F44.85786117047306
F2.675464537119576
tp51
a(F181.2112706762772
F127.17120235314894
F54.779038728934594
tp52
a(F184.1473841229939
F131.92467080197991
F6.198239552815665
tp53
a(F22.298591749921105
F21.235987842056826
F151.3702071814135
tp54
a(F157.37970781691578
F26.984962218256147
F62.91869917559947
tp55
a(F81.54714044047364
F98.91619486655334
F76.79571062010109
tp56
a(F159.5225217703849
F197.5572929461566
F100.00343371571634
tp57
a(F82.37224818721629
F101.54907540647513
F176.25956427080408
tp58
a(F153.83793961563424
F199.99398741414777
F123.11630853499744
tp59
a(F20.95772700365275
F34.17750155086097
F88.16355701534306
tp60
a(F66.58668291523682
F116.92155538316061
F171.02925078612077
tp61
a(F167.4864914547619
F193.977745200975
F23.07324515329863
tp62
a(F137.15704197638985
F81.7573862918328
F195.6993060038514
tp63
a(F75.3117303837131
F37.654058567748926
F74.07653915806074
tp64
a(F34.74407221555778
F153.73466231504506
F112.62845991252559
tp65
a(F173.50836119080287
F104.69631573666493
F151.6329372474603
tp66
a(F123.01748156073498
F180.9154275584035
F104.27130318587743
tp67
a(F194.08817589729347
F71.20002928674182
F143.36019608872556
tp68
a(F154.9854960899955
F115.11403949871877
F83.79017832920024
tp69
a(F87.36344409511814
F174.71392881790763
F68.89355713821459
tp70
a(F155.62597629849733
F90.49909168376786
F167.77430012231167
tp71
a(F144.81886871229366
F148.54207579503858
F8.984992990673568
tp72
a(F61.037717340689724
F164.7027377814902
F71.77520854375994
tp73
a(F16.059443122489746
F193.04765943010344
F75.46100128366109
tp74
a(F102.77753566417658
F8.439282048690933
F68.95020374499397
tp75
a(F89.34042305384023
F2.998477772296826
F126.69449839400284
tp76
a(F124.55633025146669
F85.36746370264771
F64.02011614286445
tp77
a(F3.710704762861994
F7.93030453251935
F193.75454792460002
tp78
a(F45.8969027820531
F132.2034490236652
F88.99806571503706
tp79
a(F151.56457019463713
F76.06748102747645
F126.02739880629375
tp80
a(F31.6019318294674
F115.88999256023808
F43.78758160707079
tp81
a(F36.80022620894392
F19.20367025559988
F125.70391974366063
tp82
a(F156.35528357762587
F75.41467048861345
F71.63340458589073
tp83
a(F79.05473869599564
F168.8955579025638
F179.54268141215124
tp84
a(F180.9896049239124
F48.84558307583748
F119.95710921568204
tp85
a(F60.47081314602234
F19.96916299560492
F25.186195697853076
tp86
a(F28.524355602759478
F65.5695271750608
F31.584699828189567
tp87
a(F26.65059599891808
F184.55829908517603
F114.01628889737789
tp88
a(F72.21427327175564
F27.188844187887852
F171.92282642945932
tp89
a(F87.1824498244207
F90.01673638605459
F103.03471308187726
tp90
a(F79.38145353840078
F94.59118644974525
F176.4394788314273
tp91
a(F51.47728180515407
F24.743508800932258
F165.6128631864941
tp92
a(F87.99811164991303
F97.9110029089044
F115.90059480779038
tp93
a(F42.78626337975342
F54.19667726318676
F134.7495597543235
tp94
a(F6.332238497172593
F149.95519330086293
F157.99996821969603
tp95
a(F60.0418386830571
F138.38985471119713
F48.52922679852245
tp96
a(F23.27340489358345
F76.24024212489174
F50.102125997321025
tp97
a(F122.7648489317986
F37.031292593042075
F164.7746347956532
tp98
a(F138.6373210637135
F5.702734260719966
F37.44152970329884
tp99
a(F26.993940588781797
F68.81796611608304
F17.763587900655665
tp100
a(F42.423768514440454
F150.0653870547241
F128.5208417448626
tp101
a(F178.0407544698451
F85.14738883861249
F35.33463309974609
tp102
a(F93.86063710691712
F85.92628577285326
F190.0071000248115
tp103
a(F84.8564631376864
F142.12850109784696
F158.76060443339
tp104
a(F35.887036622777636
F3.4991744842925554
F121.73127652810858
tp105
a(F67.76452241100661
F13.86602560861665
F184.02362079768392
tp106
a(F190.47395185406907
F190.76931825863593
F31.005266640407882
tp107
a(F41.87749707294153
F89.00104500558051
F115.72706168184766
tp108
a(F140.61350559292015
F42.13870648211311
F171.86993998956456
tp109
a(F91.60287620620693
F137.48680988912562
F126.471825055251
tp110
a(F71.95471934848885
F186.0944296182897
F190.35657225530582
tp111
a(F139.47273046360132
F77.01723968470287
F7.428313629610694
tp112
a(F132.69084184354256
F24.39348272297468
F28.786229349261184
tp113
a(F100.5171074561664
F54.96533673802624
F28.5400029654177
tp114
a(F155.45341392736546
F132.37509166692033
F52.861634073894635
tp115
a(F120.982352356399
F110.73022719139347
F7.789414909529513
tp116
a(F146.13276933257097
F157.38085144432372
F158.6989685295461
tp117
a(F9.245456408431929
F186.17779808599974
F161.77342886882712
tp118
a(F192.33516790067839
F65.81298162905807
F14.207263540326354
tp119
a(F121.44223613228276
F5.3965101173018
F46.21962511045088
tp120
a(F71.68833173003446
F156.675179525177
F42.899687934696914
tp121
a(F162.31814998727432
F163.88209668066528
F57.80404181711467
tp122
a(F14.375664053553393
F130.71026815259447
F125.37173301273018
tp123
a(F109.35336013980421
F91.31929394483846
F15.896585341345371
tp124
a(F132.32737779947445
F98.23021125228024
F190.5643768955385
tp125
a(F181.7261287833546
F41.39343895083094
F29.344033964136294
tp126
a(F85.50207984492455
F113.54197407872786
F110.09491834361913
tp127
a(F163.33628592568428
F199.36202654737653
F112.67450787915219
tp128
a(F109.79008079783121
F26.431785766344127
F190.27913250500254
tp129
a(F196.82379596955502
F36.57986048951327
F93.73080214953488
tp130
a(F124.01994301501058
F50.6995543709817
F181.7968707370541
tp131
a(F26.279517263965822
F28.207343767169824
F6.670539592938041
tp132
a(F193.84930487833586
F153.09457537555136
F165.91194129298833
tp133
a(F136.12618215426238
F186.30463446973607
F52.89601958223067
tp134
a(F187.51579937018485
F98.29319431661654
F127.80853285251771
tp135
a(F8.97140515768482
F157.44466403476812
F25.168137833531112
tp136
a(F145.56757221549444
F97.12295279876248
F161.0884092079592
tp137
a(F134.97710108752912
F122.88482200923157
F177.8898823928904
tp138
a(F4.996241046118843
F173.4445096640087
F79.9483771050153
tp139
a(F149.3252103734598
F92.12593036408916
F195.96959405131958
tp140
a(F25.82059371667109
F115.38613105322888
F172.72778109944844
tp141
a(F71.59272580527475
F120.86789183061855
F53.44886383731278
tp142
a(F111.33993761287222
F93.34185456521062
F12.79351821044541
tp143
a(F95.96305861861912
F46.92417975150285
F118.02239822175493
tp144
a(F23.358013993815007
F177.1600220769141
F60.509935504306036
tp145
a(F103.33031756653261
F24.045091133664975
F159.43722126819006
tp146
a(F128.82525577435823
F127.79887122549283
F144.11889704624508
tp147
a(F143.41091958741075
F24.223234355855716
F46.531314321790894
tp148
a(F152.37157360733252
F42.38408780661484
F140.76788987643755
tp149
a(F159.57218304290888
F172.6913170634913
F1.1508623581811817
tp150
a(F193.54805200039178
F113.3672965196814
F48.277169457086714
tp151
a(F87.04882692015443
F1.2673210157446713
F120.10814753004414
tp152
a(F106.99645007127485
F88.4615400001653
F10.867456285436417
tp153
a(F32.63476146216817
F89.40970186799969
F31.00842189589226
tp154
a(F56.46222672546464
F31.91933528024102
F67.0223777606197
tp155
a(F42.6567489483366
F168.22929105680115
F93.85589964556165
tp156
a(F125.48159739577822
F141.30733388004472
F108.83408294972968
tp157
a(F29.85135962395833
F152.69991311617864
F9.263244674802396
tp158
a(F91.5856898201655
F118.6638101040828
F55.85284156910419
tp159
a(F199.05575224823608
F118.258451259875
F72.90358157005583
tp160
a(F57.36400634863217
F6.525134078185957
F142.91287519714436
tp161
a(F2.115600399426776
F157.0550979267635
F162.49209906715706
tp162
a(F62.739185874279535
F121.20103592720062
F1.6197290747177018
tp163
a(F175.2921540607208
F2.48176932745241
F112.20842686086117
tp164
a(F94.5628578821581
F94.6880086297407
F136.34721126704807
tp165
a(F82.79346525961371
F162.67214756278207
F120.31612656215955
tp166
a(F57.23578507695113
F47.03642798296279
F82.82719017277775
tp167
a(F6.210527210328953
F104.89530725450504
F8.71251433095146
tp168
a(F93.69691194688812
F137.24162702009093
F20.33764873988959
tp169
a(F23.64400071340833
F168.62515307899423
F186.0595064005295
tp170
a(F40.6283884210231
F88.71724418221551
F193.57145193206264
tp171
a(F122.82362934046658
F93.3737589190641
F181.62383437904654
tp172
a(F195.86078035952966
F156.9310542150582
F189.75901551175406
tp173
a(F136.56292806422212
F198.00483397669885
F85.15079587849137
tp174
a(F124.4259719121683
F87.1271987645336
F128.40657711615023
tp175
a(F149.6809928137212
F47.8593143982925
F78.35154292724731
tp176
a(F53.025743318403485
F98.80893035385927
F114.12409165365875
tp177
a(F18.716330112921842
F162.0152529546982
F116.59586866771375
tp178
a(F157.63010942014577
F31.79192218154483
F58.16329216937825
tp179
a(F5.81675546092435
F197.26035040197544
F87.88591276949751
tp180
a(F155.64252018341995
F114.24197434794752
F20.081605329467124
tp181
a(F99.31684834055763
F100.00508657034169
F137.76398099878938
tp182
a(F74.72820685807986
F22.414201625234465
F44.25594807508462
tp183
a(F138.22699259703307
F121.76304305501067
F46.16384761929597
tp184
a(F161.05583585207606
F140.19273501667098
F51.17229263348675
tp185
a(F105.10913869702101
F156.43999668128293
F72.3968946139019
tp186
a.